; Function Attrs: mustprogress uwtable
define void @_ZN2cv9videostab17TwoPassStabilizer14estimateMotionEv(ptr dead_on_unwind noalias writable sret(%"class.cv::Mat") align 8 %0, ptr noundef nonnull readonly align 8 captures(none) dereferenceable(864) %1) unnamed_addr #3 align 2 {
  %3 = getelementptr inbounds nuw i8, ptr %1, i64 560
  %4 = getelementptr inbounds nuw i8, ptr %1, i64 224
  %5 = load i32, ptr %4, align 8, !tbaa !106
  %6 = load ptr, ptr %3, align 8, !tbaa !112
  %7 = sext i32 %5 to i64
  %8 = getelementptr %"class.cv::Mat", ptr %6, i64 %7
  %9 = getelementptr i8, ptr %8, i64 -96
  tail call void @_ZNK2cv3Mat5cloneEv(ptr dead_on_unwind writable sret(%"class.cv::Mat") align 8 %0, ptr noundef nonnull align 8 dereferenceable(96) %9)
  ret void
}